Certificate:
    Data:
        Version: 3 (0x2)
        Serial Number: 1 (0x1)
        Signature Algorithm: sha1WithRSAEncryption
        Issuer: CN=OpenSER, ST=SIP, C=IP/emailAddress=team@openser.org, O=openser.org
        Validity
            Not Before: Oct 28 19:16:29 2005 GMT
            Not After : Oct 28 19:16:29 2006 GMT
        Subject: C=IP, ST=SIP, O=OpenSER project, OU=OpenSER TLS tester, CN=OpenSER/emailAddress=team@openser.org
        Subject Public Key Info:
            Public Key Algorithm: rsaEncryption
            RSA Public Key: (512 bit)
                Modulus (512 bit):
                    00:b6:13:f8:54:99:2a:c3:39:2d:fa:b0:5a:cc:4d:
                    ca:8b:d0:53:9d:c9:59:ce:17:1e:ba:0a:8e:82:eb:
                    9b:c2:69:33:93:3a:b1:68:aa:da:40:bd:de:b5:6f:
                    c2:5e:99:72:59:f4:68:75:4c:01:05:94:1b:ba:1d:
                    f2:bb:10:67:d7
                Exponent: 65537 (0x10001)
        X509v3 extensions:
            X509v3 Basic Constraints: 
                CA:FALSE
    Signature Algorithm: sha1WithRSAEncryption
        3d:41:b5:28:a4:10:c7:c8:de:29:6f:2e:ed:a8:30:28:2f:9e:
        3c:a9:95:c4:df:73:7b:2e:1c:51:84:a2:bd:ff:56:94:6f:5b:
        ac:e2:8f:77:31:74:82:29:8d:e7:a8:c7:da:14:7d:6c:62:dc:
        2f:2e:70:0c:eb:53:67:fa:1b:0a:e5:e8:58:41:5e:dd:84:3d:
        3d:22:c2:c3:b5:69:e5:11:86:2a:a6:4c:f3:07:98:00:f5:cf:
        c8:f1:ea:a3:62:f6:40:ef:08:74:93:de:5b:f2:dc:01:dc:0f:
        2a:81:e3:03:56:d1:ef:ca:22:fc:18:29:4f:b0:45:b1:d0:30:
        6b:63:1b:72:ef:9d:ae:bf:ef:b3:0d:fa:39:49:25:48:46:6d:
        68:a1:12:7a:23:1e:ba:53:8e:a5:a2:38:8e:3b:0f:df:b1:b6:
        1e:61:69:80:57:c1:f1:8d:62:69:e0:85:e9:6b:e0:10:4d:37:
        b0:3e:98:cc:b5:b5:ea:db:2f:a2:02:51:85:27:1d:65:74:2e:
        e3:f4:1f:0c:52:3e:f8:86:6b:50:f1:38:1d:23:97:53:3c:84:
        03:4e:25:a0:66:3a:16:aa:94:77:f2:c8:65:db:ce:c7:0d:c2:
        44:7a:8e:af:ee:c5:bc:4e:aa:2f:29:c5:02:33:ea:c7:78:76:
        02:d4:b4:ca
-----BEGIN CERTIFICATE-----
MIICqjCCAZKgAwIBAgIBATANBgkqhkiG9w0BAQUFADBkMRAwDgYDVQQDEwdPcGVu
U0VSMQwwCgYDVQQIEwNTSVAxCzAJBgNVBAYTAklQMR8wHQYJKoZIhvcNAQkBFhB0
ZWFtQG9wZW5zZXIub3JnMRQwEgYDVQQKEwtvcGVuc2VyLm9yZzAeFw0wNTEwMjgx
OTE2MjlaFw0wNjEwMjgxOTE2MjlaMIGFMQswCQYDVQQGEwJJUDEMMAoGA1UECBMD
U0lQMRgwFgYDVQQKEw9PcGVuU0VSIHByb2plY3QxGzAZBgNVBAsTEk9wZW5TRVIg
VExTIHRlc3RlcjEQMA4GA1UEAxMHT3BlblNFUjEfMB0GCSqGSIb3DQEJARYQdGVh
bUBvcGVuc2VyLm9yZzBcMA0GCSqGSIb3DQEBAQUAA0sAMEgCQQC2E/hUmSrDOS36
sFrMTcqL0FOdyVnOFx66Co6C65vCaTOTOrFoqtpAvd61b8JemXJZ9Gh1TAEFlBu6
HfK7EGfXAgMBAAGjDTALMAkGA1UdEwQCMAAwDQYJKoZIhvcNAQEFBQADggEBAD1B
tSikEMfI3ilvLu2oMCgvnjyplcTfc3suHFGEor3/VpRvW6zij3cxdIIpjeeox9oU
fWxi3C8ucAzrU2f6Gwrl6FhBXt2EPT0iwsO1aeURhiqmTPMHmAD1z8jx6qNi9kDv
CHST3lvy3AHcDyqB4wNW0e/KIvwYKU+wRbHQMGtjG3Lvna6/77MN+jlJJUhGbWih
EnojHrpTjqWiOI47D9+xth5haYBXwfGNYmnghelr4BBNN7A+mMy1terbL6ICUYUn
HWV0LuP0HwxSPviGa1DxOB0jl1M8hANOJaBmOhaqlHfyyGXbzscNwkR6jq/uxbxO
qi8pxQIz6sd4dgLUtMo=
-----END CERTIFICATE-----
